target datalayout = "e-m:e-p270:32:32-p271:32:32-p272:64:64-i64:64-i128:128-f80:128-n8:16:32:64-S128"
target triple = "x86_64-pc-linux-gnu"

%"class.google::protobuf::Map" = type { %"class.google::protobuf::Map<google::protobuf::MapKey, google::protobuf::MapValueRef>::InnerMap" }
%"class.google::protobuf::Map<google::protobuf::MapKey, google::protobuf::MapValueRef>::InnerMap" = type { i64, i64, i64, i64, ptr, %"class.google::protobuf::internal::MapAllocator" }
%"class.google::protobuf::internal::MapAllocator" = type { ptr }

; Function Attrs: mustprogress nounwind uwtable
define linkonce_odr hidden noundef i64 @_ZNK6google8protobuf3MapINS0_6MapKeyENS0_11MapValueRefEE8InnerMap4sizeEv(ptr noundef nonnull align 8 dereferenceable(48) %0) #4 comdat align 2 {
  %2 = alloca ptr, align 8
  store ptr %0, ptr %2, align 8, !tbaa !97
  %3 = load ptr, ptr %2, align 8
  %4 = getelementptr inbounds nuw %"class.google::protobuf::Map<google::protobuf::MapKey, google::protobuf::MapValueRef>::InnerMap", ptr %3, i32 0, i32 0
  %5 = load i64, ptr %4, align 8, !tbaa !130
  ret i64 %5
}

; Function Attrs: mustprogress uwtable
define linkonce_odr hidden noundef i64 @_ZNK6google8protobuf3MapINS0_6MapKeyENS0_11MapValueRefEE4sizeEv(ptr noundef nonnull align 8 dereferenceable(48) %0) #7 comdat align 2 {
  %2 = alloca ptr, align 8
  store ptr %0, ptr %2, align 8, !tbaa !55
  %3 = load ptr, ptr %2, align 8
  %4 = getelementptr inbounds nuw %"class.google::protobuf::Map", ptr %3, i32 0, i32 0
  %5 = call noundef i64 @_ZNK6google8protobuf3MapINS0_6MapKeyENS0_11MapValueRefEE8InnerMap4sizeEv(ptr noundef nonnull align 8 dereferenceable(48) %4)
  ret i64 %5
}

; Function Attrs: mustprogress uwtable
define hidden noundef i32 @_ZNK6google8protobuf8internal15DynamicMapField4sizeEv(ptr noundef nonnull align 8 dereferenceable(128) %0) unnamed_addr #7 align 2 {
  %2 = alloca ptr, align 8
  store ptr %0, ptr %2, align 8, !tbaa !43
  %3 = load ptr, ptr %2, align 8
  %4 = load ptr, ptr %3, align 8, !tbaa !18
  %5 = getelementptr inbounds ptr, ptr %4, i64 21
  %6 = load ptr, ptr %5, align 8
  %7 = call noundef nonnull align 8 dereferenceable(48) ptr %6(ptr noundef nonnull align 8 dereferenceable(128) %3)
  %8 = call noundef i64 @_ZNK6google8protobuf3MapINS0_6MapKeyENS0_11MapValueRefEE4sizeEv(ptr noundef nonnull align 8 dereferenceable(48) %7)
  %9 = trunc i64 %8 to i32
  ret i32 %9
}