; Function Attrs: mustprogress uwtable
define hidden noundef i32 @_ZNK6google8protobuf8internal15DynamicMapField4sizeEv(ptr noundef nonnull align 8 dereferenceable(128) %0) unnamed_addr #6 align 2 {
  %2 = load ptr, ptr %0, align 8, !tbaa !15
  %3 = getelementptr inbounds nuw i8, ptr %2, i64 168
  %4 = load ptr, ptr %3, align 8
  %5 = tail call noundef nonnull align 8 dereferenceable(48) ptr %4(ptr noundef nonnull align 8 dereferenceable(128) %0)
  %6 = load i64, ptr %5, align 8, !tbaa !50
  %7 = trunc i64 %6 to i32
  ret i32 %7
}